target datalayout = "e-m:e-p270:32:32-p271:32:32-p272:64:64-i64:64-i128:128-f80:128-n8:16:32:64-S128"
target triple = "x86_64-pc-linux-gnu"

%struct.grpc_auth_refresh_token = type { ptr, ptr, ptr, ptr }

@.str = private unnamed_addr constant [8 x i8] c"invalid\00", align 1

; Function Attrs: mustprogress nounwind uwtable
define noundef i32 @_Z32grpc_auth_refresh_token_is_validPK23grpc_auth_refresh_token(ptr noundef %0) #4 {
  %2 = alloca ptr, align 8
  store ptr %0, ptr %2, align 8, !tbaa !3
  %3 = load ptr, ptr %2, align 8, !tbaa !3
  %4 = icmp ne ptr %3, null
  br i1 %4, label %5, label %11

5:                                                ; preds = %1
  %6 = load ptr, ptr %2, align 8, !tbaa !3
  %7 = getelementptr inbounds nuw %struct.grpc_auth_refresh_token, ptr %6, i32 0, i32 0
  %8 = load ptr, ptr %7, align 8, !tbaa !8
  %9 = call i32 @strcmp(ptr noundef %8, ptr noundef @.str) #27
  %10 = icmp ne i32 %9, 0
  br label %11

11:                                               ; preds = %5, %1
  %12 = phi i1 [ false, %1 ], [ %10, %5 ]
  %13 = zext i1 %12 to i32
  ret i32 %13
}